; Function Attrs: nounwind uwtable
define dso_local void @archive_read_extract_set_skip_file(ptr noundef %0, i64 noundef %1, i64 noundef %2) local_unnamed_addr #0 {
  %4 = tail call i32 @__archive_check_magic(ptr noundef %0, i32 noundef 14594245, i32 noundef 32767, ptr noundef nonnull @.str) #15
  %.not = icmp eq i32 %4, 0
  br i1 %.not, label %5, label %9

5:                                                ; preds = %3
  %6 = getelementptr inbounds nuw i8, ptr %0, i64 152
  store i32 1, ptr %6, align 8, !tbaa !29
  %7 = getelementptr inbounds nuw i8, ptr %0, i64 160
  store i64 %1, ptr %7, align 8, !tbaa !30
  %8 = getelementptr inbounds nuw i8, ptr %0, i64 168
  store i64 %2, ptr %8, align 8, !tbaa !31
  br label %9

9:                                                ; preds = %3, %5
  ret void
}